target datalayout = "e-m:e-p270:32:32-p271:32:32-p272:64:64-i64:64-i128:128-f80:128-n8:16:32:64-S128"
target triple = "x86_64-pc-linux-gnu"

%struct.Vec_Int_t_ = type { i32, i32, ptr }
%struct.Cnf_Dat_t_ = type { ptr, i32, i32, i32, ptr, ptr, ptr, ptr, ptr, ptr }

@.str = private unnamed_addr constant [13 x i8] c"p cnf %d %d\0A\00", align 1
@.str.4 = private unnamed_addr constant [2 x i8] c"\0A\00", align 1
@.str.5 = private unnamed_addr constant [3 x i8] c"wb\00", align 1
@.str.6 = private unnamed_addr constant [52 x i8] c"Cnf_WriteIntoFile(): Output file cannot be opened.\0A\00", align 1
@.str.7 = private unnamed_addr constant [63 x i8] c"c Result of efficient AIG-to-CNF conversion using package CNF\0A\00", align 1
@.str.8 = private unnamed_addr constant [3 x i8] c"a \00", align 1
@.str.9 = private unnamed_addr constant [4 x i8] c"%d \00", align 1
@.str.10 = private unnamed_addr constant [3 x i8] c"0\0A\00", align 1
@.str.11 = private unnamed_addr constant [3 x i8] c"e \00", align 1

; Function Attrs: inlinehint nounwind uwtable
define internal i32 @Cnf_Lit2Var(i32 noundef %0) #5 {
  %2 = alloca i32, align 4
  store i32 %0, ptr %2, align 4, !tbaa !20
  %3 = load i32, ptr %2, align 4, !tbaa !20
  %4 = and i32 %3, 1
  %5 = icmp ne i32 %4, 0
  br i1 %5, label %6, label %11

6:                                                ; preds = %1
  %7 = load i32, ptr %2, align 4, !tbaa !20
  %8 = ashr i32 %7, 1
  %9 = sub nsw i32 0, %8
  %10 = sub nsw i32 %9, 1
  br label %15

11:                                               ; preds = %1
  %12 = load i32, ptr %2, align 4, !tbaa !20
  %13 = ashr i32 %12, 1
  %14 = add nsw i32 %13, 1
  br label %15

15:                                               ; preds = %11, %6
  %16 = phi i32 [ %10, %6 ], [ %14, %11 ]
  ret i32 %16
}

; Function Attrs: inlinehint nounwind uwtable
define internal i32 @Cnf_Lit2Var2(i32 noundef %0) #5 {
  %2 = alloca i32, align 4
  store i32 %0, ptr %2, align 4, !tbaa !20
  %3 = load i32, ptr %2, align 4, !tbaa !20
  %4 = and i32 %3, 1
  %5 = icmp ne i32 %4, 0
  br i1 %5, label %6, label %10

6:                                                ; preds = %1
  %7 = load i32, ptr %2, align 4, !tbaa !20
  %8 = ashr i32 %7, 1
  %9 = sub nsw i32 0, %8
  br label %13

10:                                               ; preds = %1
  %11 = load i32, ptr %2, align 4, !tbaa !20
  %12 = ashr i32 %11, 1
  br label %13

13:                                               ; preds = %10, %6
  %14 = phi i32 [ %9, %6 ], [ %12, %10 ]
  ret i32 %14
}

; Function Attrs: inlinehint nounwind uwtable
define internal i32 @Vec_IntEntry(ptr noundef %0, i32 noundef %1) #5 {
  %3 = alloca ptr, align 8
  %4 = alloca i32, align 4
  store ptr %0, ptr %3, align 8, !tbaa !24
  store i32 %1, ptr %4, align 4, !tbaa !20
  %5 = load ptr, ptr %3, align 8, !tbaa !24
  %6 = getelementptr inbounds nuw %struct.Vec_Int_t_, ptr %5, i32 0, i32 2
  %7 = load ptr, ptr %6, align 8, !tbaa !28
  %8 = load i32, ptr %4, align 4, !tbaa !20
  %9 = sext i32 %8 to i64
  %10 = getelementptr inbounds i32, ptr %7, i64 %9
  %11 = load i32, ptr %10, align 4, !tbaa !20
  ret i32 %11
}

; Function Attrs: inlinehint nounwind uwtable
define internal i32 @Vec_IntSize(ptr noundef %0) #5 {
  %2 = alloca ptr, align 8
  store ptr %0, ptr %2, align 8, !tbaa !24
  %3 = load ptr, ptr %2, align 8, !tbaa !24
  %4 = getelementptr inbounds nuw %struct.Vec_Int_t_, ptr %3, i32 0, i32 1
  %5 = load i32, ptr %4, align 4, !tbaa !25
  ret i32 %5
}

; Function Attrs: nounwind uwtable
define void @Cnf_DataWriteIntoFileGz(ptr noundef %0, ptr noundef %1, i32 noundef %2, ptr noundef %3, ptr noundef %4) #0 {
  %6 = alloca ptr, align 8
  %7 = alloca ptr, align 8
  %8 = alloca i32, align 4
  %9 = alloca ptr, align 8
  %10 = alloca ptr, align 8
  %11 = alloca ptr, align 8
  %12 = alloca ptr, align 8
  %13 = alloca ptr, align 8
  %14 = alloca i32, align 4
  %15 = alloca i32, align 4
  %16 = alloca i32, align 4
  store ptr %0, ptr %6, align 8, !tbaa !32
  store ptr %1, ptr %7, align 8, !tbaa !31
  store i32 %2, ptr %8, align 4, !tbaa !20
  store ptr %3, ptr %9, align 8, !tbaa !24
  store ptr %4, ptr %10, align 8, !tbaa !24
  call void @llvm.lifetime.start.p0(i64 8, ptr %11) #11
  call void @llvm.lifetime.start.p0(i64 8, ptr %12) #11
  call void @llvm.lifetime.start.p0(i64 8, ptr %13) #11
  call void @llvm.lifetime.start.p0(i64 4, ptr %14) #11
  call void @llvm.lifetime.start.p0(i64 4, ptr %15) #11
  %17 = load ptr, ptr %7, align 8, !tbaa !31
  %18 = call ptr @gzopen(ptr noundef %17, ptr noundef @.str.5)
  store ptr %18, ptr %11, align 8, !tbaa !54
  %19 = load ptr, ptr %11, align 8, !tbaa !54
  %20 = icmp eq ptr %19, null
  br i1 %20, label %21, label %23

21:                                               ; preds = %5
  %22 = call i32 (ptr, ...) @printf(ptr noundef @.str.6)
  store i32 1, ptr %16, align 4
  br label %159

23:                                               ; preds = %5
  %24 = load ptr, ptr %11, align 8, !tbaa !54
  %25 = call i32 (ptr, ptr, ...) @gzprintf(ptr noundef %24, ptr noundef @.str.7)
  %26 = load ptr, ptr %11, align 8, !tbaa !54
  %27 = load ptr, ptr %6, align 8, !tbaa !32
  %28 = getelementptr inbounds nuw %struct.Cnf_Dat_t_, ptr %27, i32 0, i32 1
  %29 = load i32, ptr %28, align 8, !tbaa !56
  %30 = load ptr, ptr %6, align 8, !tbaa !32
  %31 = getelementptr inbounds nuw %struct.Cnf_Dat_t_, ptr %30, i32 0, i32 3
  %32 = load i32, ptr %31, align 8, !tbaa !57
  %33 = call i32 (ptr, ptr, ...) @gzprintf(ptr noundef %26, ptr noundef @.str, i32 noundef %29, i32 noundef %32)
  %34 = load ptr, ptr %9, align 8, !tbaa !24
  %35 = icmp ne ptr %34, null
  br i1 %35, label %36, label %68

36:                                               ; preds = %23
  %37 = load ptr, ptr %11, align 8, !tbaa !54
  %38 = call i32 (ptr, ptr, ...) @gzprintf(ptr noundef %37, ptr noundef @.str.8)
  store i32 0, ptr %14, align 4, !tbaa !20
  br label %39

39:                                               ; preds = %62, %36
  %40 = load i32, ptr %14, align 4, !tbaa !20
  %41 = load ptr, ptr %9, align 8, !tbaa !24
  %42 = call i32 @Vec_IntSize(ptr noundef %41)
  %43 = icmp slt i32 %40, %42
  br i1 %43, label %44, label %48

44:                                               ; preds = %39
  %45 = load ptr, ptr %9, align 8, !tbaa !24
  %46 = load i32, ptr %14, align 4, !tbaa !20
  %47 = call i32 @Vec_IntEntry(ptr noundef %45, i32 noundef %46)
  store i32 %47, ptr %15, align 4, !tbaa !20
  br label %48

48:                                               ; preds = %44, %39
  %49 = phi i1 [ false, %39 ], [ true, %44 ]
  br i1 %49, label %50, label %65

50:                                               ; preds = %48
  %51 = load ptr, ptr %11, align 8, !tbaa !54
  %52 = load i32, ptr %8, align 4, !tbaa !20
  %53 = icmp ne i32 %52, 0
  br i1 %53, label %54, label %56

54:                                               ; preds = %50
  %55 = load i32, ptr %15, align 4, !tbaa !20
  br label %59

56:                                               ; preds = %50
  %57 = load i32, ptr %15, align 4, !tbaa !20
  %58 = add nsw i32 %57, 1
  br label %59

59:                                               ; preds = %56, %54
  %60 = phi i32 [ %55, %54 ], [ %58, %56 ]
  %61 = call i32 (ptr, ptr, ...) @gzprintf(ptr noundef %51, ptr noundef @.str.9, i32 noundef %60)
  br label %62

62:                                               ; preds = %59
  %63 = load i32, ptr %14, align 4, !tbaa !20
  %64 = add nsw i32 %63, 1
  store i32 %64, ptr %14, align 4, !tbaa !20
  br label %39, !llvm.loop !78

65:                                               ; preds = %48
  %66 = load ptr, ptr %11, align 8, !tbaa !54
  %67 = call i32 (ptr, ptr, ...) @gzprintf(ptr noundef %66, ptr noundef @.str.10)
  br label %68

68:                                               ; preds = %65, %23
  %69 = load ptr, ptr %10, align 8, !tbaa !24
  %70 = icmp ne ptr %69, null
  br i1 %70, label %71, label %103

71:                                               ; preds = %68
  %72 = load ptr, ptr %11, align 8, !tbaa !54
  %73 = call i32 (ptr, ptr, ...) @gzprintf(ptr noundef %72, ptr noundef @.str.11)
  store i32 0, ptr %14, align 4, !tbaa !20
  br label %74

74:                                               ; preds = %97, %71
  %75 = load i32, ptr %14, align 4, !tbaa !20
  %76 = load ptr, ptr %10, align 8, !tbaa !24
  %77 = call i32 @Vec_IntSize(ptr noundef %76)
  %78 = icmp slt i32 %75, %77
  br i1 %78, label %79, label %83

79:                                               ; preds = %74
  %80 = load ptr, ptr %10, align 8, !tbaa !24
  %81 = load i32, ptr %14, align 4, !tbaa !20
  %82 = call i32 @Vec_IntEntry(ptr noundef %80, i32 noundef %81)
  store i32 %82, ptr %15, align 4, !tbaa !20
  br label %83

83:                                               ; preds = %79, %74
  %84 = phi i1 [ false, %74 ], [ true, %79 ]
  br i1 %84, label %85, label %100

85:                                               ; preds = %83
  %86 = load ptr, ptr %11, align 8, !tbaa !54
  %87 = load i32, ptr %8, align 4, !tbaa !20
  %88 = icmp ne i32 %87, 0
  br i1 %88, label %89, label %91

89:                                               ; preds = %85
  %90 = load i32, ptr %15, align 4, !tbaa !20
  br label %94

91:                                               ; preds = %85
  %92 = load i32, ptr %15, align 4, !tbaa !20
  %93 = add nsw i32 %92, 1
  br label %94

94:                                               ; preds = %91, %89
  %95 = phi i32 [ %90, %89 ], [ %93, %91 ]
  %96 = call i32 (ptr, ptr, ...) @gzprintf(ptr noundef %86, ptr noundef @.str.9, i32 noundef %95)
  br label %97

97:                                               ; preds = %94
  %98 = load i32, ptr %14, align 4, !tbaa !20
  %99 = add nsw i32 %98, 1
  store i32 %99, ptr %14, align 4, !tbaa !20
  br label %74, !llvm.loop !79

100:                                              ; preds = %83
  %101 = load ptr, ptr %11, align 8, !tbaa !54
  %102 = call i32 (ptr, ptr, ...) @gzprintf(ptr noundef %101, ptr noundef @.str.10)
  br label %103

103:                                              ; preds = %100, %68
  store i32 0, ptr %14, align 4, !tbaa !20
  br label %104

104:                                              ; preds = %151, %103
  %105 = load i32, ptr %14, align 4, !tbaa !20
  %106 = load ptr, ptr %6, align 8, !tbaa !32
  %107 = getelementptr inbounds nuw %struct.Cnf_Dat_t_, ptr %106, i32 0, i32 3
  %108 = load i32, ptr %107, align 8, !tbaa !57
  %109 = icmp slt i32 %105, %108
  br i1 %109, label %110, label %154

110:                                              ; preds = %104
  %111 = load ptr, ptr %6, align 8, !tbaa !32
  %112 = getelementptr inbounds nuw %struct.Cnf_Dat_t_, ptr %111, i32 0, i32 4
  %113 = load ptr, ptr %112, align 8, !tbaa !59
  %114 = load i32, ptr %14, align 4, !tbaa !20
  %115 = sext i32 %114 to i64
  %116 = getelementptr inbounds ptr, ptr %113, i64 %115
  %117 = load ptr, ptr %116, align 8, !tbaa !18
  store ptr %117, ptr %12, align 8, !tbaa !18
  %118 = load ptr, ptr %6, align 8, !tbaa !32
  %119 = getelementptr inbounds nuw %struct.Cnf_Dat_t_, ptr %118, i32 0, i32 4
  %120 = load ptr, ptr %119, align 8, !tbaa !59
  %121 = load i32, ptr %14, align 4, !tbaa !20
  %122 = add nsw i32 %121, 1
  %123 = sext i32 %122 to i64
  %124 = getelementptr inbounds ptr, ptr %120, i64 %123
  %125 = load ptr, ptr %124, align 8, !tbaa !18
  store ptr %125, ptr %13, align 8, !tbaa !18
  br label %126

126:                                              ; preds = %145, %110
  %127 = load ptr, ptr %12, align 8, !tbaa !18
  %128 = load ptr, ptr %13, align 8, !tbaa !18
  %129 = icmp ult ptr %127, %128
  br i1 %129, label %130, label %148

130:                                              ; preds = %126
  %131 = load ptr, ptr %11, align 8, !tbaa !54
  %132 = load i32, ptr %8, align 4, !tbaa !20
  %133 = icmp ne i32 %132, 0
  br i1 %133, label %134, label %138

134:                                              ; preds = %130
  %135 = load ptr, ptr %12, align 8, !tbaa !18
  %136 = load i32, ptr %135, align 4, !tbaa !20
  %137 = call i32 @Cnf_Lit2Var2(i32 noundef %136)
  br label %142

138:                                              ; preds = %130
  %139 = load ptr, ptr %12, align 8, !tbaa !18
  %140 = load i32, ptr %139, align 4, !tbaa !20
  %141 = call i32 @Cnf_Lit2Var(i32 noundef %140)
  br label %142

142:                                              ; preds = %138, %134
  %143 = phi i32 [ %137, %134 ], [ %141, %138 ]
  %144 = call i32 (ptr, ptr, ...) @gzprintf(ptr noundef %131, ptr noundef @.str.9, i32 noundef %143)
  br label %145

145:                                              ; preds = %142
  %146 = load ptr, ptr %12, align 8, !tbaa !18
  %147 = getelementptr inbounds nuw i32, ptr %146, i32 1
  store ptr %147, ptr %12, align 8, !tbaa !18
  br label %126, !llvm.loop !80

148:                                              ; preds = %126
  %149 = load ptr, ptr %11, align 8, !tbaa !54
  %150 = call i32 (ptr, ptr, ...) @gzprintf(ptr noundef %149, ptr noundef @.str.10)
  br label %151

151:                                              ; preds = %148
  %152 = load i32, ptr %14, align 4, !tbaa !20
  %153 = add nsw i32 %152, 1
  store i32 %153, ptr %14, align 4, !tbaa !20
  br label %104, !llvm.loop !81

154:                                              ; preds = %104
  %155 = load ptr, ptr %11, align 8, !tbaa !54
  %156 = call i32 (ptr, ptr, ...) @gzprintf(ptr noundef %155, ptr noundef @.str.4)
  %157 = load ptr, ptr %11, align 8, !tbaa !54
  %158 = call i32 @gzclose(ptr noundef %157)
  store i32 0, ptr %16, align 4
  br label %159

159:                                              ; preds = %154, %21
  call void @llvm.lifetime.end.p0(i64 4, ptr %15) #11
  call void @llvm.lifetime.end.p0(i64 4, ptr %14) #11
  call void @llvm.lifetime.end.p0(i64 8, ptr %13) #11
  call void @llvm.lifetime.end.p0(i64 8, ptr %12) #11
  call void @llvm.lifetime.end.p0(i64 8, ptr %11) #11
  %160 = load i32, ptr %16, align 4
  switch i32 %160, label %162 [
    i32 0, label %161
    i32 1, label %161
  ]

161:                                              ; preds = %159, %159
  ret void

162:                                              ; preds = %159
  unreachable
}