; Function Attrs: nounwind uwtable
define void @Cnf_DataWriteIntoFileGz(ptr noundef readonly captures(none) %0, ptr noundef %1, i32 noundef %2, ptr noundef readonly %3, ptr noundef readonly %4) local_unnamed_addr #0 {
  %6 = tail call ptr @gzopen(ptr noundef %1, ptr noundef nonnull @.str.5) #16
  %7 = icmp eq ptr %6, null
  br i1 %7, label %8, label %9

8:                                                ; preds = %5
  %puts = tail call i32 @puts(ptr nonnull dereferenceable(1) @str.3)
  br label %88

9:                                                ; preds = %5
  %10 = tail call i32 (ptr, ptr, ...) @gzprintf(ptr noundef nonnull %6, ptr noundef nonnull @.str.7) #16
  %11 = getelementptr inbounds nuw i8, ptr %0, i64 8
  %12 = load i32, ptr %11, align 8, !tbaa !48
  %13 = getelementptr inbounds nuw i8, ptr %0, i64 16
  %14 = load i32, ptr %13, align 8, !tbaa !49
  %15 = tail call i32 (ptr, ptr, ...) @gzprintf(ptr noundef nonnull %6, ptr noundef nonnull @.str, i32 noundef %12, i32 noundef %14) #16
  %.not = icmp eq ptr %3, null
  br i1 %.not, label %30, label %16

16:                                               ; preds = %9
  %17 = tail call i32 (ptr, ptr, ...) @gzprintf(ptr noundef nonnull %6, ptr noundef nonnull @.str.8) #16
  %18 = getelementptr i8, ptr %3, i64 4
  %.val5660 = load i32, ptr %18, align 4, !tbaa !20
  %19 = icmp sgt i32 %.val5660, 0
  br i1 %19, label %.lr.ph, label %.critedge

.lr.ph:                                           ; preds = %16
  %20 = getelementptr i8, ptr %3, i64 8
  %.not55 = icmp eq i32 %2, 0
  %21 = zext i1 %.not55 to i32
  br label %22

22:                                               ; preds = %.lr.ph, %22
  %indvars.iv = phi i64 [ 0, %.lr.ph ], [ %indvars.iv.next, %22 ]
  %.val58 = load ptr, ptr %20, align 8, !tbaa !23
  %23 = getelementptr inbounds nuw i32, ptr %.val58, i64 %indvars.iv
  %24 = load i32, ptr %23, align 4, !tbaa !28
  %25 = add nsw i32 %24, %21
  %26 = tail call i32 (ptr, ptr, ...) @gzprintf(ptr noundef nonnull %6, ptr noundef nonnull @.str.9, i32 noundef %25) #16
  %indvars.iv.next = add nuw nsw i64 %indvars.iv, 1
  %.val56 = load i32, ptr %18, align 4, !tbaa !20
  %27 = sext i32 %.val56 to i64
  %28 = icmp slt i64 %indvars.iv.next, %27
  br i1 %28, label %22, label %.critedge, !llvm.loop !69

.critedge:                                        ; preds = %22, %16
  %29 = tail call i32 (ptr, ptr, ...) @gzprintf(ptr noundef nonnull %6, ptr noundef nonnull @.str.10) #16
  br label %30

30:                                               ; preds = %.critedge, %9
  %.not52 = icmp eq ptr %4, null
  br i1 %.not52, label %45, label %31

31:                                               ; preds = %30
  %32 = tail call i32 (ptr, ptr, ...) @gzprintf(ptr noundef nonnull %6, ptr noundef nonnull @.str.11) #16
  %33 = getelementptr i8, ptr %4, i64 4
  %.val62 = load i32, ptr %33, align 4, !tbaa !20
  %34 = icmp sgt i32 %.val62, 0
  br i1 %34, label %.lr.ph64, label %.critedge2

.lr.ph64:                                         ; preds = %31
  %35 = getelementptr i8, ptr %4, i64 8
  %.not54 = icmp eq i32 %2, 0
  %36 = zext i1 %.not54 to i32
  br label %37

37:                                               ; preds = %.lr.ph64, %37
  %indvars.iv73 = phi i64 [ 0, %.lr.ph64 ], [ %indvars.iv.next74, %37 ]
  %.val57 = load ptr, ptr %35, align 8, !tbaa !23
  %38 = getelementptr inbounds nuw i32, ptr %.val57, i64 %indvars.iv73
  %39 = load i32, ptr %38, align 4, !tbaa !28
  %40 = add nsw i32 %39, %36
  %41 = tail call i32 (ptr, ptr, ...) @gzprintf(ptr noundef nonnull %6, ptr noundef nonnull @.str.9, i32 noundef %40) #16
  %indvars.iv.next74 = add nuw nsw i64 %indvars.iv73, 1
  %.val = load i32, ptr %33, align 4, !tbaa !20
  %42 = sext i32 %.val to i64
  %43 = icmp slt i64 %indvars.iv.next74, %42
  br i1 %43, label %37, label %.critedge2, !llvm.loop !70

.critedge2:                                       ; preds = %37, %31
  %44 = tail call i32 (ptr, ptr, ...) @gzprintf(ptr noundef nonnull %6, ptr noundef nonnull @.str.10) #16
  br label %45

45:                                               ; preds = %.critedge2, %30
  %46 = load i32, ptr %13, align 8, !tbaa !49
  %47 = icmp sgt i32 %46, 0
  br i1 %47, label %.lr.ph69, label %._crit_edge70

.lr.ph69:                                         ; preds = %45
  %48 = getelementptr inbounds nuw i8, ptr %0, i64 24
  %.not53 = icmp eq i32 %2, 0
  br i1 %.not53, label %.lr.ph69.split.us, label %.lr.ph69.split

.lr.ph69.split.us:                                ; preds = %.lr.ph69, %._crit_edge.split.us.us
  %indvars.iv79 = phi i64 [ %indvars.iv.next80, %._crit_edge.split.us.us ], [ 0, %.lr.ph69 ]
  %49 = load ptr, ptr %48, align 8, !tbaa !51
  %50 = getelementptr inbounds nuw ptr, ptr %49, i64 %indvars.iv79
  %51 = load ptr, ptr %50, align 8, !tbaa !16
  %indvars.iv.next80 = add nuw nsw i64 %indvars.iv79, 1
  %52 = getelementptr inbounds nuw ptr, ptr %49, i64 %indvars.iv.next80
  %53 = load ptr, ptr %52, align 8, !tbaa !16
  %54 = icmp ult ptr %51, %53
  br i1 %54, label %.lr.ph66.us, label %._crit_edge.split.us.us

._crit_edge.split.us.us:                          ; preds = %.lr.ph66.us, %.lr.ph69.split.us
  %55 = tail call i32 (ptr, ptr, ...) @gzprintf(ptr noundef nonnull %6, ptr noundef nonnull @.str.10) #16
  %56 = load i32, ptr %13, align 8, !tbaa !49
  %57 = sext i32 %56 to i64
  %58 = icmp slt i64 %indvars.iv.next80, %57
  br i1 %58, label %.lr.ph69.split.us, label %._crit_edge70, !llvm.loop !71

.lr.ph66.us:                                      ; preds = %.lr.ph69.split.us, %.lr.ph66.us
  %.04865.us.us = phi ptr [ %66, %.lr.ph66.us ], [ %51, %.lr.ph69.split.us ]
  %59 = load i32, ptr %.04865.us.us, align 4, !tbaa !28
  %60 = and i32 %59, 1
  %.not.i59.us.us = icmp eq i32 %60, 0
  %61 = ashr i32 %59, 1
  %62 = xor i32 %61, -1
  %63 = add nsw i32 %61, 1
  %64 = select i1 %.not.i59.us.us, i32 %63, i32 %62
  %65 = tail call i32 (ptr, ptr, ...) @gzprintf(ptr noundef nonnull %6, ptr noundef nonnull @.str.9, i32 noundef %64) #16
  %66 = getelementptr inbounds nuw i8, ptr %.04865.us.us, i64 4
  %67 = icmp ult ptr %66, %53
  br i1 %67, label %.lr.ph66.us, label %._crit_edge.split.us.us, !llvm.loop !72

.lr.ph69.split:                                   ; preds = %.lr.ph69, %._crit_edge.split
  %indvars.iv76 = phi i64 [ %indvars.iv.next77, %._crit_edge.split ], [ 0, %.lr.ph69 ]
  %68 = load ptr, ptr %48, align 8, !tbaa !51
  %69 = getelementptr inbounds nuw ptr, ptr %68, i64 %indvars.iv76
  %70 = load ptr, ptr %69, align 8, !tbaa !16
  %indvars.iv.next77 = add nuw nsw i64 %indvars.iv76, 1
  %71 = getelementptr inbounds nuw ptr, ptr %68, i64 %indvars.iv.next77
  %72 = load ptr, ptr %71, align 8, !tbaa !16
  %73 = icmp ult ptr %70, %72
  br i1 %73, label %.lr.ph66, label %._crit_edge.split

.lr.ph66:                                         ; preds = %.lr.ph69.split, %.lr.ph66
  %.04865 = phi ptr [ %80, %.lr.ph66 ], [ %70, %.lr.ph69.split ]
  %74 = load i32, ptr %.04865, align 4, !tbaa !28
  %75 = and i32 %74, 1
  %.not.i = icmp eq i32 %75, 0
  %76 = ashr i32 %74, 1
  %77 = sub nsw i32 0, %76
  %78 = select i1 %.not.i, i32 %76, i32 %77
  %79 = tail call i32 (ptr, ptr, ...) @gzprintf(ptr noundef nonnull %6, ptr noundef nonnull @.str.9, i32 noundef %78) #16
  %80 = getelementptr inbounds nuw i8, ptr %.04865, i64 4
  %81 = icmp ult ptr %80, %72
  br i1 %81, label %.lr.ph66, label %._crit_edge.split, !llvm.loop !72

._crit_edge.split:                                ; preds = %.lr.ph66, %.lr.ph69.split
  %82 = tail call i32 (ptr, ptr, ...) @gzprintf(ptr noundef nonnull %6, ptr noundef nonnull @.str.10) #16
  %83 = load i32, ptr %13, align 8, !tbaa !49
  %84 = sext i32 %83 to i64
  %85 = icmp slt i64 %indvars.iv.next77, %84
  br i1 %85, label %.lr.ph69.split, label %._crit_edge70, !llvm.loop !71

._crit_edge70:                                    ; preds = %._crit_edge.split, %._crit_edge.split.us.us, %45
  %86 = tail call i32 (ptr, ptr, ...) @gzprintf(ptr noundef nonnull %6, ptr noundef nonnull @.str.4) #16
  %87 = tail call i32 @gzclose(ptr noundef nonnull %6) #16
  br label %88

88:                                               ; preds = %._crit_edge70, %8
  ret void
}